target datalayout = "e-m:e-p270:32:32-p271:32:32-p272:64:64-i64:64-i128:128-f80:128-n8:16:32:64-S128"
target triple = "x86_64-pc-linux-gnu"

%"class.llvm::SmallVectorBase" = type { ptr, i32, i32 }
%"class.llvm::DenseSet" = type { %"class.llvm::detail::DenseSetImpl" }
%"class.llvm::detail::DenseSetImpl" = type { %"class.llvm::DenseMap.197" }
%"class.llvm::DenseMap.197" = type <{ ptr, i32, i32, i32, [4 x i8] }>
%"class.llvm::DenseSet.200" = type { %"class.llvm::detail::DenseSetImpl.201" }
%"class.llvm::detail::DenseSetImpl.201" = type { %"class.llvm::DenseMap.202" }
%"class.llvm::DenseMap.202" = type <{ ptr, i32, i32, i32, [4 x i8] }>
%"class.llvm::SmallVector.251" = type { %"class.llvm::SmallVectorImpl.252", %"struct.llvm::SmallVectorStorage.255" }
%"class.llvm::SmallVectorImpl.252" = type { %"class.llvm::SmallVectorTemplateBase.253" }
%"class.llvm::SmallVectorTemplateBase.253" = type { %"class.llvm::SmallVectorTemplateCommon.254" }
%"class.llvm::SmallVectorTemplateCommon.254" = type { %"class.llvm::SmallVectorBase" }
%"struct.llvm::SmallVectorStorage.255" = type { [64 x i8] }
%"struct.(anonymous namespace)::RegInfo" = type { ptr, i8, %"class.llvm::SmallVector.313" }
%"class.llvm::SmallVector.313" = type { %"class.llvm::SmallVectorImpl.314", %"struct.llvm::SmallVectorStorage.317" }
%"class.llvm::SmallVectorImpl.314" = type { %"class.llvm::SmallVectorTemplateBase.315" }
%"class.llvm::SmallVectorTemplateBase.315" = type { %"class.llvm::SmallVectorTemplateCommon.316" }
%"class.llvm::SmallVectorTemplateCommon.316" = type { %"class.llvm::SmallVectorBase" }
%"struct.llvm::SmallVectorStorage.317" = type { [64 x i8] }
%"class.(anonymous namespace)::CHRScope" = type { %"class.llvm::SmallVector.280", %"class.llvm::SmallVector.251", ptr, %"class.llvm::DenseSet", %"class.llvm::DenseSet", %"class.llvm::SmallVector.280", %"class.llvm::DenseSet.200", %"class.llvm::DenseSet.200", %"class.llvm::DenseMap.285" }
%"class.llvm::SmallVector.280" = type { %"class.llvm::SmallVectorImpl.281", %"struct.llvm::SmallVectorStorage.284" }
%"class.llvm::SmallVectorImpl.281" = type { %"class.llvm::SmallVectorTemplateBase.282" }
%"class.llvm::SmallVectorTemplateBase.282" = type { %"class.llvm::SmallVectorTemplateCommon.283" }
%"class.llvm::SmallVectorTemplateCommon.283" = type { %"class.llvm::SmallVectorBase" }
%"struct.llvm::SmallVectorStorage.284" = type { [768 x i8] }
%"class.llvm::DenseMap.285" = type <{ ptr, i32, i32, i32, [4 x i8] }>

; Function Attrs: mustprogress nounwind uwtable
define internal noundef ptr @_ZN4llvm25SmallVectorTemplateCommonIN12_GLOBAL__N_17RegInfoEvE5beginEv(ptr noundef nonnull align 8 dereferenceable(16) %0) #1 align 2 {
  %2 = alloca ptr, align 8
  store ptr %0, ptr %2, align 8
  %3 = load ptr, ptr %2, align 8
  %4 = getelementptr inbounds nuw %"class.llvm::SmallVectorBase", ptr %3, i32 0, i32 0
  %5 = load ptr, ptr %4, align 8
  ret ptr %5
}

; Function Attrs: mustprogress nounwind uwtable
define internal noundef nonnull align 8 dereferenceable(96) ptr @_ZN4llvm25SmallVectorTemplateCommonIN12_GLOBAL__N_17RegInfoEvEixEm(ptr noundef nonnull align 8 dereferenceable(16) %0, i64 noundef %1) #1 align 2 {
  %3 = alloca ptr, align 8
  %4 = alloca i64, align 8
  store ptr %0, ptr %3, align 8
  store i64 %1, ptr %4, align 8
  %5 = load ptr, ptr %3, align 8
  %6 = call noundef ptr @_ZN4llvm25SmallVectorTemplateCommonIN12_GLOBAL__N_17RegInfoEvE5beginEv(ptr noundef nonnull align 8 dereferenceable(16) %5)
  %7 = load i64, ptr %4, align 8
  %8 = getelementptr inbounds %"struct.(anonymous namespace)::RegInfo", ptr %6, i64 %7
  ret ptr %8
}

; Function Attrs: mustprogress nounwind uwtable
define internal noundef zeroext i1 @_ZL14CHRScopeSorterPN12_GLOBAL__N_18CHRScopeES1_(ptr noundef %0, ptr noundef %1) #1 {
  %3 = alloca ptr, align 8
  %4 = alloca ptr, align 8
  store ptr %0, ptr %3, align 8
  store ptr %1, ptr %4, align 8
  %5 = load ptr, ptr %3, align 8
  %6 = getelementptr inbounds nuw %"class.(anonymous namespace)::CHRScope", ptr %5, i32 0, i32 0
  %7 = call noundef nonnull align 8 dereferenceable(96) ptr @_ZN4llvm25SmallVectorTemplateCommonIN12_GLOBAL__N_17RegInfoEvEixEm(ptr noundef nonnull align 8 dereferenceable(16) %6, i64 noundef 0)
  %8 = getelementptr inbounds nuw %"struct.(anonymous namespace)::RegInfo", ptr %7, i32 0, i32 0
  %9 = load ptr, ptr %8, align 8
  %10 = call noundef i32 @_ZNK4llvm10RegionBaseINS_12RegionTraitsINS_8FunctionEEEE8getDepthEv(ptr noundef nonnull align 8 dereferenceable(112) %9)
  %11 = load ptr, ptr %4, align 8
  %12 = getelementptr inbounds nuw %"class.(anonymous namespace)::CHRScope", ptr %11, i32 0, i32 0
  %13 = call noundef nonnull align 8 dereferenceable(96) ptr @_ZN4llvm25SmallVectorTemplateCommonIN12_GLOBAL__N_17RegInfoEvEixEm(ptr noundef nonnull align 8 dereferenceable(16) %12, i64 noundef 0)
  %14 = getelementptr inbounds nuw %"struct.(anonymous namespace)::RegInfo", ptr %13, i32 0, i32 0
  %15 = load ptr, ptr %14, align 8
  %16 = call noundef i32 @_ZNK4llvm10RegionBaseINS_12RegionTraitsINS_8FunctionEEEE8getDepthEv(ptr noundef nonnull align 8 dereferenceable(112) %15)
  %17 = icmp ult i32 %10, %16
  ret i1 %17
}