; Function Attrs: mustprogress nounwind uwtable
define internal noundef zeroext i1 @_ZL14CHRScopeSorterPN12_GLOBAL__N_18CHRScopeES1_(ptr nocapture noundef readonly %0, ptr nocapture noundef readonly %1) #0 {
  %.val2 = load ptr, ptr %0, align 8
  %3 = load ptr, ptr %.val2, align 8
  %4 = tail call noundef i32 @_ZNK4llvm10RegionBaseINS_12RegionTraitsINS_8FunctionEEEE8getDepthEv(ptr noundef nonnull align 8 dereferenceable(112) %3) #22
  %.val = load ptr, ptr %1, align 8
  %5 = load ptr, ptr %.val, align 8
  %6 = tail call noundef i32 @_ZNK4llvm10RegionBaseINS_12RegionTraitsINS_8FunctionEEEE8getDepthEv(ptr noundef nonnull align 8 dereferenceable(112) %5) #22
  %7 = icmp ult i32 %4, %6
  ret i1 %7
}